; ModuleID = 'bench/darktable/original/FileWriter.cpp.ll'
source_filename = "bench/darktable/original/FileWriter.cpp.ll"
target datalayout = "e-m:e-p270:32:32-p271:32:32-p272:64:64-i64:64-i128:128-f80:128-n8:16:32:64-S128"
target triple = "x86_64-pc-linux-gnu"

%"struct.std::array" = type { [8192 x i8] }
%struct.__va_list_tag = type { i32, i32, ptr, ptr }

$_ZN8rawspeed14ThrowExceptionINS_15FileIOExceptionEEEvPKcz = comdat any

$_ZN8rawspeed15FileIOExceptionCI2NS_17RawspeedExceptionEEPKc = comdat any

$_ZN8rawspeed17RawspeedExceptionC2EPKc = comdat any

$_ZZN8rawspeed14ThrowExceptionINS_15FileIOExceptionEEEvPKczE3buf = comdat any

@.str = private unnamed_addr constant [3 x i8] c"wb\00", align 1
@.str.1 = private unnamed_addr constant [34 x i8] c"%s, line 51: Could not open file.\00", align 1
@__PRETTY_FUNCTION__._ZNK8rawspeed10FileWriter9writeFileENS_6BufferEj = private unnamed_addr constant [61 x i8] c"void rawspeed::FileWriter::writeFile(Buffer, uint32_t) const\00", align 1
@.str.2 = private unnamed_addr constant [35 x i8] c"%s, line 57: Could not write file.\00", align 1
@_ZZN8rawspeed14ThrowExceptionINS_15FileIOExceptionEEEvPKczE3buf = linkonce_odr hidden thread_local global %"struct.std::array" zeroinitializer, comdat, align 1
@.str.3 = private unnamed_addr constant [14 x i8] c"EXCEPTION: %s\00", align 1
@_ZTIN8rawspeed15FileIOExceptionE = external constant ptr
@_ZTVN8rawspeed15FileIOExceptionE = external unnamed_addr constant { [6 x ptr] }, align 8
@_ZTVN8rawspeed17RawspeedExceptionE = external unnamed_addr constant { [6 x ptr] }, align 8

@_ZN8rawspeed10FileWriterC1EPKc = hidden unnamed_addr alias void (ptr, ptr), ptr @_ZN8rawspeed10FileWriterC2EPKc

; Function Attrs: mustprogress nofree norecurse nosync nounwind willreturn memory(argmem: write) uwtable
define hidden void @_ZN8rawspeed10FileWriterC2EPKc(ptr nocapture noundef nonnull writeonly align 8 dereferenceable(8) %0, ptr noundef %1) unnamed_addr #0 align 2 {
  store ptr %1, ptr %0, align 8, !tbaa !6
  ret void
}

; Function Attrs: mustprogress uwtable
define hidden void @_ZNK8rawspeed10FileWriter9writeFileENS_6BufferEj(ptr nocapture noundef nonnull readonly align 8 dereferenceable(8) %0, ptr %1, i32 %2, i32 noundef %3) local_unnamed_addr #1 align 2 {
  %5 = load ptr, ptr %0, align 8, !tbaa !6
  %6 = tail call noalias ptr @fopen(ptr noundef %5, ptr noundef nonnull @.str)
  %7 = icmp eq ptr %6, null
  br i1 %7, label %8, label %9

8:                                                ; preds = %4
  tail call void (ptr, ...) @_ZN8rawspeed14ThrowExceptionINS_15FileIOExceptionEEEvPKcz(ptr noundef nonnull @.str.1, ptr noundef nonnull @__PRETTY_FUNCTION__._ZNK8rawspeed10FileWriter9writeFileENS_6BufferEj) #12
  unreachable

9:                                                ; preds = %4
  %10 = tail call i32 @llvm.umin.i32(i32 %2, i32 %3)
  %11 = icmp ne ptr %1, null
  tail call void @llvm.assume(i1 %11)
  %12 = icmp sgt i32 %2, -1
  tail call void @llvm.assume(i1 %12)
  %13 = icmp eq i32 %10, 0
  %14 = select i1 %13, i32 %2, i32 %10
  %15 = zext nneg i32 %14 to i64
  %16 = tail call i64 @fwrite(ptr noundef nonnull %1, i64 noundef 1, i64 noundef %15, ptr noundef nonnull %6)
  %17 = tail call i32 @fclose(ptr noundef nonnull %6)
  %18 = zext nneg i32 %10 to i64
  %19 = icmp eq i64 %16, %18
  br i1 %19, label %21, label %20

20:                                               ; preds = %9
  tail call void (ptr, ...) @_ZN8rawspeed14ThrowExceptionINS_15FileIOExceptionEEEvPKcz(ptr noundef nonnull @.str.2, ptr noundef nonnull @__PRETTY_FUNCTION__._ZNK8rawspeed10FileWriter9writeFileENS_6BufferEj) #12
  unreachable

21:                                               ; preds = %9
  ret void
}

; Function Attrs: mustprogress nocallback nofree nosync nounwind willreturn memory(argmem: readwrite)
declare void @llvm.lifetime.start.p0(i64 immarg, ptr nocapture) #2

; Function Attrs: nofree nounwind
declare noalias noundef ptr @fopen(ptr nocapture noundef readonly, ptr nocapture noundef readonly) local_unnamed_addr #3

; Function Attrs: cold mustprogress noreturn optsize uwtable
define linkonce_odr hidden void @_ZN8rawspeed14ThrowExceptionINS_15FileIOExceptionEEEvPKcz(ptr noundef %0, ...) local_unnamed_addr #4 comdat personality ptr @__gxx_personality_v0 {
  %2 = alloca [1 x %struct.__va_list_tag], align 16
  call void @llvm.lifetime.start.p0(i64 24, ptr nonnull %2) #13
  call void @llvm.va_start.p0(ptr nonnull %2)
  %3 = call align 1 ptr @llvm.threadlocal.address.p0(ptr align 1 @_ZZN8rawspeed14ThrowExceptionINS_15FileIOExceptionEEEvPKczE3buf)
  %4 = call i32 @vsnprintf(ptr noundef nonnull %3, i64 noundef 8192, ptr noundef %0, ptr noundef nonnull %2) #13
  call void @llvm.va_end.p0(ptr nonnull %2)
  call void (i32, ptr, ...) @_ZN8rawspeed8writeLogENS_10DEBUG_PRIOEPKcz(i32 noundef 65536, ptr noundef nonnull @.str.3, ptr noundef nonnull %3)
  %5 = call ptr @__cxa_allocate_exception(i64 16) #13
  invoke void @_ZN8rawspeed15FileIOExceptionCI2NS_17RawspeedExceptionEEPKc(ptr noundef nonnull align 8 dereferenceable(16) %5, ptr noundef nonnull %3)
          to label %6 unwind label %7

6:                                                ; preds = %1
  call void @__cxa_throw(ptr nonnull %5, ptr nonnull @_ZTIN8rawspeed15FileIOExceptionE, ptr nonnull @_ZNSt13runtime_errorD2Ev) #14
  unreachable

7:                                                ; preds = %1
  %8 = landingpad { ptr, i32 }
          cleanup
  call void @__cxa_free_exception(ptr %5) #13
  call void @llvm.lifetime.end.p0(i64 24, ptr nonnull %2) #13
  resume { ptr, i32 } %8
}

; Function Attrs: nofree nounwind
declare noundef i64 @fwrite(ptr nocapture noundef, i64 noundef, i64 noundef, ptr nocapture noundef) local_unnamed_addr #3

; Function Attrs: nofree nounwind
declare noundef i32 @fclose(ptr nocapture noundef) local_unnamed_addr #3

; Function Attrs: mustprogress nocallback nofree nosync nounwind willreturn memory(argmem: readwrite)
declare void @llvm.lifetime.end.p0(i64 immarg, ptr nocapture) #2

; Function Attrs: mustprogress nocallback nofree nosync nounwind willreturn memory(inaccessiblemem: write)
declare void @llvm.assume(i1 noundef) #5

; Function Attrs: nofree nounwind
declare noundef i32 @vsnprintf(ptr nocapture noundef, i64 noundef, ptr nocapture noundef readonly, ptr noundef) local_unnamed_addr #3

; Function Attrs: mustprogress nocallback nofree nosync nounwind speculatable willreturn memory(none)
declare nonnull ptr @llvm.threadlocal.address.p0(ptr nonnull) #6

declare void @_ZN8rawspeed8writeLogENS_10DEBUG_PRIOEPKcz(i32 noundef, ptr noundef, ...) local_unnamed_addr #7

declare ptr @__cxa_allocate_exception(i64) local_unnamed_addr

; Function Attrs: inlinehint mustprogress uwtable
define linkonce_odr hidden void @_ZN8rawspeed15FileIOExceptionCI2NS_17RawspeedExceptionEEPKc(ptr noundef nonnull align 8 dereferenceable(16) %0, ptr noundef %1) unnamed_addr #8 comdat align 2 {
  tail call void @_ZN8rawspeed17RawspeedExceptionC2EPKc(ptr noundef nonnull align 8 dereferenceable(16) %0, ptr noundef %1) #15
  store ptr getelementptr inbounds inrange(-16, 32) ({ [6 x ptr] }, ptr @_ZTVN8rawspeed15FileIOExceptionE, i64 0, i32 0, i64 2), ptr %0, align 8, !tbaa !11
  ret void
}

declare i32 @__gxx_personality_v0(...)

declare void @__cxa_free_exception(ptr) local_unnamed_addr

; Function Attrs: nounwind
declare void @_ZNSt13runtime_errorD2Ev(ptr noundef nonnull align 8 dereferenceable(16)) unnamed_addr #9

declare void @__cxa_throw(ptr, ptr, ptr) local_unnamed_addr

; Function Attrs: cold mustprogress optsize uwtable
define linkonce_odr hidden void @_ZN8rawspeed17RawspeedExceptionC2EPKc(ptr noundef nonnull align 8 dereferenceable(16) %0, ptr noundef %1) unnamed_addr #10 comdat align 2 personality ptr @__gxx_personality_v0 {
  tail call void @_ZNSt13runtime_errorC2EPKc(ptr noundef nonnull align 8 dereferenceable(16) %0, ptr noundef %1)
  store ptr getelementptr inbounds inrange(-16, 32) ({ [6 x ptr] }, ptr @_ZTVN8rawspeed17RawspeedExceptionE, i64 0, i32 0, i64 2), ptr %0, align 8, !tbaa !11
  invoke void (i32, ptr, ...) @_ZN8rawspeed8writeLogENS_10DEBUG_PRIOEPKcz(i32 noundef 65536, ptr noundef nonnull @.str.3, ptr noundef %1)
          to label %_ZN8rawspeed17RawspeedException3logEPKc.exit unwind label %3

_ZN8rawspeed17RawspeedException3logEPKc.exit:     ; preds = %2
  ret void

3:                                                ; preds = %2
  %4 = landingpad { ptr, i32 }
          cleanup
  tail call void @_ZNSt13runtime_errorD2Ev(ptr noundef nonnull align 8 dereferenceable(16) %0) #13
  resume { ptr, i32 } %4
}

declare void @_ZNSt13runtime_errorC2EPKc(ptr noundef nonnull align 8 dereferenceable(16), ptr noundef) unnamed_addr #7

; Function Attrs: mustprogress nocallback nofree nosync nounwind speculatable willreturn memory(none)
declare i32 @llvm.umin.i32(i32, i32) #6

; Function Attrs: mustprogress nocallback nofree nosync nounwind willreturn
declare void @llvm.va_start.p0(ptr) #11

; Function Attrs: mustprogress nocallback nofree nosync nounwind willreturn
declare void @llvm.va_end.p0(ptr) #11


!llvm.linker.options = !{}
!llvm.module.flags = !{!0, !1, !2, !3, !4, !5}

!0 = !{i32 7, !"Dwarf Version", i32 5}
!1 = !{i32 2, !"Debug Info Version", i32 3}
!2 = !{i32 1, !"wchar_size", i32 4}
!3 = !{i32 8, !"PIC Level", i32 2}
!4 = !{i32 7, !"uwtable", i32 2}
!5 = !{i32 7, !"debug-info-assignment-tracking", i1 true}
!6 = !{!7, !8, i64 0}
!7 = !{!"_ZTSN8rawspeed10FileWriterE", !8, i64 0}
!8 = !{!"any pointer", !9, i64 0}
!9 = !{!"omnipotent char", !10, i64 0}
!10 = !{!"Simple C++ TBAA"}
!11 = !{!12, !12, i64 0}
!12 = !{!"vtable pointer", !10, i64 0}
